(dp0
S'features'
p1
(lp2
S'Master.'
p3
aS'onesur'
p4
aS'sibling/spouse'
p5
aS'age'
p6
aS'family'
p7
aS'age_unknown'
p8
aS'parent'
p9
aS'onedie'
p10
aS'pclass'
p11
aS'fare_unknown'
p12
aS'Mr.'
p13
aS'cabin_unknown'
p14
asS'parameters'
p15
(lp16
(lp17
I3
aI1
aa(lp18
I2
aI1
aa(lp19
I3
aI1
aa(lp20
I4
aI1
aa(lp21
I4
aI2
aa(lp22
I4
aI2
aa(lp23
I4
aI2
aa(lp24
I4
aI1
aa(lp25
I4
aI1
aa(lp26
I6
aI3
aa(lp27
I8
aI1
aa(lp28
I4
aI1
aasS'accuracy'
p29
(lp30
cnumpy.core.multiarray
scalar
p31
(cnumpy
dtype
p32
(S'f8'
p33
I0
I1
tp34
Rp35
(I3
S'<'
p36
NNNI-1
I-1
I0
tp37
bS'\xd0\xb6T\xe6\xd7;\xea?'
p38
tp39
Rp40
ag31
(g35
S'\x93{\xa5W1\xe6\xea?'
p41
tp42
Rp43
ag31
(g35
S'].<\x90\xcf\x10\xeb?'
p44
tp45
Rp46
ag31
(g35
S'\xc84F\x01\xef\x10\xeb?'
p47
tp48
Rp49
ag31
(g35
S'\xc84F\x01\xef\x10\xeb?'
p50
tp51
Rp52
ag31
(g35
S'\xc84F\x01\xef\x10\xeb?'
p53
tp54
Rp55
ag31
(g35
S'\xd0pDr\xaf\xf4\xea?'
p56
tp57
Rp58
ag31
(g35
S'\xfd\x81\xaf\xc8P\xe6\xea?'
p59
tp60
Rp61
ag31
(g35
S'B\xb3LT\x8f\xd8\xea?'
p62
tp63
Rp64
ag31
(g35
S'\xa2_\xd9\x1b\x0e\x03\xeb?'
p65
tp66
Rp67
ag31
(g35
S'+\x93\x1a\x1f\xf2\xd7\xea?'
p68
tp69
Rp70
ag31
(g35
S'\xd2"\x8c\xc83\x91\xea?'
p71
tp72
Rp73
as.