(dp0
S'features'
p1
(lp2
S'family'
p3
aS'onesur'
p4
aS'pclass'
p5
aS'age'
p6
aS'Miss.'
p7
aS'sibling/spouse'
p8
aS'cabin_unknown'
p9
aS'age_unknown'
p10
aS'Mrs.'
p11
aS'onedie'
p12
aS'parent'
p13
asS'parameters'
p14
(lp15
(lp16
a(lp17
a(lp18
a(lp19
a(lp20
a(lp21
a(lp22
a(lp23
a(lp24
a(lp25
a(lp26
asS'accuracy'
p27
(lp28
cnumpy.core.multiarray
scalar
p29
(cnumpy
dtype
p30
(S'f8'
p31
I0
I1
tp32
Rp33
(I3
S'<'
p34
NNNI-1
I-1
I0
tp35
bS'8\xc6k\xddZ\xbe\xe7?'
p36
tp37
Rp38
ag29
(g33
S'X\xba\x8ch\xfc\x94\xe9?'
p39
tp40
Rp41
ag29
(g33
S'\xeer`\xcd\xeeO\xeb?'
p42
tp43
Rp44
ag29
(g33
S'\xcew\xae\xad\xf3\x9d\xeb?'
p45
tp46
Rp47
ag29
(g33
S'\x0e{\xe2\xed\xf6\xd1\xeb?'
p48
tp49
Rp50
ag29
(g33
S'\xa3\x19\x16Q\xcf\xec\xeb?'
p51
tp52
Rp53
ag29
(g33
S'C\x1b0\xf1\xd0\x06\xec?'
p54
tp55
Rp56
ag29
(g33
S'\xe3\x1cJ\x91\xd2 \xec?'
p57
tp58
Rp59
ag29
(g33
S'\xe3\x1cJ\x91\xd2 \xec?'
p60
tp61
Rp62
ag29
(g33
S'C\x1b0\xf1\xd0\x06\xec?'
p63
tp64
Rp65
ag29
(g33
S'\xc3\x14\xc8p\xca\x9e\xeb?'
p66
tp67
Rp68
as.