(dp0
S'features'
p1
(lp2
S'age'
p3
aS'onesur'
p4
aS'Master.'
p5
aS'family'
p6
aS'fare_unknown'
p7
aS'pclass'
p8
aS'Mr.'
p9
aS'onedie'
p10
aS'age_unknown'
p11
aS'parent'
p12
aS'cabin_unknown'
p13
aS'sibling/spouse'
p14
asS'parameters'
p15
(lp16
(lp17
I0
aI7
aI4
aa(lp18
I3
aI7
aI4
aa(lp19
I0
aI9
aI4
aa(lp20
I0
aI11
aI4
aa(lp21
I1
aI14
aI2
aa(lp22
I1
aI8
aI3
aa(lp23
I1
aI6
aI4
aa(lp24
I2
aI6
aI2
aa(lp25
I2
aI10
aI2
aa(lp26
I4
aI13
aI2
aa(lp27
I1
aI13
aI3
aa(lp28
I5
aI8
aI3
aasS'accuracy'
p29
(lp30
cnumpy.core.multiarray
scalar
p31
(cnumpy
dtype
p32
(S'f8'
p33
I0
I1
tp34
Rp35
(I3
S'<'
p36
NNNI-1
I-1
I0
tp37
bS'\xa0\x87jWVX\xea?'
p38
tp39
Rp40
ag31
(g35
S']\xc2\x04\xaes\xbb\xea?'
p41
tp42
Rp43
ag31
(g35
S'\xfac0\x90p\xf4\xea?'
p44
tp45
Rp46
ag31
(g35
S'].<\x90\xcf\x10\xeb?'
p47
tp48
Rp49
ag31
(g35
S'\xc5\x16\xc7\xc8\x0e\x1f\xeb?'
p50
tp51
Rp52
ag31
(g35
S'b\xb8\xf2\xaa\x0bX\xeb?'
p53
tp54
Rp55
ag31
(g35
S'\xc84F\x01\xef\x10\xeb?'
p56
tp57
Rp58
ag31
(g35
S'\x8b?\xa7\xe6p\x02\xeb?'
p59
tp60
Rp61
ag31
(g35
S'\x08HdTM\x11\xeb?'
p62
tp63
Rp64
ag31
(g35
S'\xda\xca\xc1\x1bP\xca\xea?'
p65
tp66
Rp67
ag31
(g35
S'\xfd\x81\xaf\xc8P\xe6\xea?'
p68
tp69
Rp70
ag31
(g35
S'\x93{\xa5W1\xe6\xea?'
p71
tp72
Rp73
as.