(dp0
S'features'
p1
(lp2
S'age'
p3
aS'pclass'
p4
aS'onedie'
p5
aS'onesur'
p6
aS'parent'
p7
aS'age_unknown'
p8
aS'sibling/spouse'
p9
aS'family'
p10
aS'Mrs.'
p11
aS'Miss.'
p12
aS'cabin_unknown'
p13
asS'parameters'
p14
(lp15
(lp16
I1
aI14
aI2
aa(lp17
I0
aI13
aI3
aa(lp18
I2
aI7
aI3
aa(lp19
I0
aI9
aI3
aa(lp20
I4
aI6
aI4
aa(lp21
I0
aI8
aI2
aa(lp22
I4
aI11
aI4
aa(lp23
I4
aI8
aI4
aa(lp24
I0
aI6
aI2
aa(lp25
I2
aI10
aI4
aa(lp26
I4
aI7
aI3
aasS'accuracy'
p27
(lp28
cnumpy.core.multiarray
scalar
p29
(cnumpy
dtype
p30
(S'f8'
p31
I0
I1
tp32
Rp33
(I3
S'<'
p34
NNNI-1
I-1
I0
tp35
bS'\xd3\x9cz_\xce@\xe8?'
p36
tp37
Rp38
ag29
(g33
S'\xa8K\xb2\x03\xb7_\xe9?'
p39
tp40
Rp41
ag29
(g33
S'\x8etzm\xf0i\xeb?'
p42
tp43
Rp44
ag29
(g33
S'\xf5\xaa;\xec\x89\xb7\xeb?'
p45
tp46
Rp47
ag29
(g33
S'@\x11Vi\xb6\xea\xeb?'
p48
tp49
Rp50
ag29
(g33
S'\xae|\xfc\x8d\xf8\xeb\xeb?'
p51
tp52
Rp53
ag29
(g33
S'\x1a\xde\xc8* \xd1\xeb?'
p54
tp55
Rp56
ag29
(g33
S'\x1a\xde\xc8* \xd1\xeb?'
p57
tp58
Rp59
ag29
(g33
S'\xcew\xae\xad\xf3\x9d\xeb?'
p60
tp61
Rp62
ag29
(g33
S'HF;\x0f_\x9e\xeb?'
p63
tp64
Rp65
ag29
(g33
S'U\xa9!L\x88\x9d\xeb?'
p66
tp67
Rp68
as.