(dp0
S'features'
p1
(lp2
S'Master.'
p3
aS'onesur'
p4
aS'sibling/spouse'
p5
aS'family'
p6
aS'fare_unknown'
p7
aS'age_unknown'
p8
aS'pclass'
p9
aS'age'
p10
aS'Mr.'
p11
aS'parent'
p12
aS'onedie'
p13
aS'cabin_unknown'
p14
asS'parameters'
p15
(lp16
(lp17
I1
aa(lp18
I1
aa(lp19
I1
aa(lp20
I1
aa(lp21
I1
aa(lp22
I1
aa(lp23
I1
aa(lp24
I1
aa(lp25
I1
aa(lp26
I1
aa(lp27
I2
aa(lp28
I1
aasS'accuracy'
p29
(lp30
cnumpy.core.multiarray
scalar
p31
(cnumpy
dtype
p32
(S'f8'
p33
I0
I1
tp34
Rp35
(I3
S'<'
p36
NNNI-1
I-1
I0
tp37
bS'\xcd\x98\xd5\xad\xf7I\xea?'
p38
tp39
Rp40
ag31
(g35
S'\x93{\xa5W1\xe6\xea?'
p41
tp42
Rp43
ag31
(g35
S'].<\x90\xcf\x10\xeb?'
p44
tp45
Rp46
ag31
(g35
S'].<\x90\xcf\x10\xeb?'
p47
tp48
Rp49
ag31
(g35
S'].<\x90\xcf\x10\xeb?'
p50
tp51
Rp52
ag31
(g35
S'].<\x90\xcf\x10\xeb?'
p53
tp54
Rp55
ag31
(g35
S'].<\x90\xcf\x10\xeb?'
p56
tp57
Rp58
ag31
(g35
S'].<\x90\xcf\x10\xeb?'
p59
tp60
Rp61
ag31
(g35
S'h\x88\xb99p\xe6\xea?'
p62
tp63
Rp64
ag31
(g35
S'bL\xbb\xc8\xaf\x02\xeb?'
p65
tp66
Rp67
ag31
(g35
S'\x9a\xb7\xa3\xc8\xf1\xc9\xea?'
p68
tp69
Rp70
ag31
(g35
S'c\xfe\x02\x1f4\x9f\xea?'
p71
tp72
Rp73
as.