(dp0
S'features'
p1
(lp2
S'C10'
p3
aS'C6'
p4
aS'C9'
p5
aS'C4'
p6
aS'C3'
p7
aS'C5'
p8
aS'C8'
p9
aS'C2'
p10
aS'C7'
p11
aS'C1'
p12
asS'parameters'
p13
(lp14
(lp15
I10
aI1
aa(lp16
I10
aI1
aa(lp17
I10
aI1
aa(lp18
I7
aI1
aa(lp19
I10
aI1
aa(lp20
I9
aI2
aa(lp21
I9
aI3
aa(lp22
I10
aI1
aa(lp23
I10
aI3
aa(lp24
I10
aI2
aasS'accuracy'
p25
(lp26
cnumpy.core.multiarray
scalar
p27
(cnumpy
dtype
p28
(S'f8'
p29
I0
I1
tp30
Rp31
(I3
S'<'
p32
NNNI-1
I-1
I0
tp33
bS'\x1a\xf1f\xc4\x9b\x11\xe7?'
p34
tp35
Rp36
ag27
(g31
S'\xf7\x12\xdaKh/\xe9?'
p37
tp38
Rp39
ag27
(g31
S'\xf7\x12\xdaKh/\xe9?'
p40
tp41
Rp42
ag27
(g31
S'\n\x8f\xf0\x08\x8f\xf0\xe8?'
p43
tp44
Rp45
ag27
(g31
S'\xd5\x92\x82~=-\xe9?'
p46
tp47
Rp48
ag27
(g31
S'\n\x8f\xf0\x08\x8f\xf0\xe8?'
p49
tp50
Rp51
ag27
(g31
S's\x87\xcc\x1d2w\xe8?'
p52
tp53
Rp54
ag27
(g31
S'\xcb\x03\x92u\xae<\xe8?'
p55
tp56
Rp57
ag27
(g31
S'E\x00\xaf\x9aU\x04\xe8?'
p58
tp59
Rp60
ag27
(g31
S'\xf7p\x0f\xf7p\x0f\xe7?'
p61
tp62
Rp63
as.