(dp0
S'features'
p1
(lp2
S'C2'
p3
aS'C11'
p4
aS'C9'
p5
aS'C10'
p6
aS'C1'
p7
aS'C8'
p8
aS'C3'
p9
aS'C7'
p10
aS'C12'
p11
aS'C6'
p12
aS'C5'
p13
aS'C4'
p14
asS'parameters'
p15
(lp16
(lp17
I0
aI7
aI3
aa(lp18
I3
aI9
aI3
aa(lp19
I0
aI7
aI3
aa(lp20
I0
aI14
aI3
aa(lp21
I2
aI12
aI2
aa(lp22
I4
aI9
aI2
aa(lp23
I1
aI9
aI4
aa(lp24
I1
aI6
aI2
aa(lp25
I2
aI8
aI2
aa(lp26
I1
aI13
aI3
aa(lp27
I1
aI11
aI3
aa(lp28
I0
aI10
aI3
aasS'accuracy'
p29
(lp30
cnumpy.core.multiarray
scalar
p31
(cnumpy
dtype
p32
(S'f8'
p33
I0
I1
tp34
Rp35
(I3
S'<'
p36
NNNI-1
I-1
I0
tp37
bS'n\xdb\xb6m\xdb\xb6\xe5?'
p38
tp39
Rp40
ag31
(g35
S'ffffff\xe6?'
p41
tp42
Rp43
ag31
(g35
S'\x0f\xea\xa0\x0e\xea\xa0\xe6?'
p44
tp45
Rp46
ag31
(g35
S'ffffff\xe6?'
p47
tp48
Rp49
ag31
(g35
S'\x07uP\x07uP\xe7?'
p50
tp51
Rp52
ag31
(g35
S'\xbe\xe2+\xbe\xe2+\xe6?'
p53
tp54
Rp55
ag31
(g35
S'\x0f\xea\xa0\x0e\xea\xa0\xe6?'
p56
tp57
Rp58
ag31
(g35
S'\x0e\xea\xa0\x0e\xea\xa0\xe6?'
p59
tp60
Rp61
ag31
(g35
S'\x07uP\x07uP\xe7?'
p62
tp63
Rp64
ag31
(g35
S'`\xf1\x15_\xf1\x15\xe7?'
p65
tp66
Rp67
ag31
(g35
S'\x0e\xea\xa0\x0e\xea\xa0\xe6?'
p68
tp69
Rp70
ag31
(g35
S'\xb7m\xdb\xb6m\xdb\xe6?'
p71
tp72
Rp73
as.