(dp0
S'features'
p1
(lp2
S'C10'
p3
aS'C6'
p4
aS'C3'
p5
aS'C9'
p6
aS'C2'
p7
aS'C5'
p8
aS'C4'
p9
aS'C8'
p10
aS'C1'
p11
aS'C7'
p12
asS'parameters'
p13
(lp14
(lp15
I3
aI6
aI2
aa(lp16
I3
aI6
aI4
aa(lp17
I2
aI8
aI4
aa(lp18
I1
aI7
aI3
aa(lp19
I3
aI6
aI3
aa(lp20
I0
aI6
aI3
aa(lp21
I0
aI6
aI4
aa(lp22
I0
aI8
aI3
aa(lp23
I0
aI7
aI4
aa(lp24
I3
aI12
aI4
aasS'accuracy'
p25
(lp26
cnumpy.core.multiarray
scalar
p27
(cnumpy
dtype
p28
(S'f8'
p29
I0
I1
tp30
Rp31
(I3
S'<'
p32
NNNI-1
I-1
I0
tp33
bS'Z\xf4\x9a\x04\x9fE\xe7?'
p34
tp35
Rp36
ag27
(g31
S'\xa0\x96\x14\xf4\xebi\xe9?'
p37
tp38
Rp39
ag27
(g31
S'Z\x96eY\x96e\xe9?'
p40
tp41
Rp42
ag27
(g31
S'\xd5\x92\x82~=-\xe9?'
p43
tp44
Rp45
ag27
(g31
S'\x9e\x96\x14\xf4\xebi\xe9?'
p46
tp47
Rp48
ag27
(g31
S'\xa6%\x05\xfdzZ\xea?'
p49
tp50
Rp51
ag27
(g31
S'\xb1\x12+\xb1\x12+\xe9?'
p52
tp53
Rp54
ag27
(g31
S'\xe5\x0e\x99;d\xee\xe8?'
p55
tp56
Rp57
ag27
(g31
S'\xdb\x07\xd3\x85\xb2}\xe8?'
p58
tp59
Rp60
ag27
(g31
S'\x95\x07$\xeb\\y\xe8?'
p61
tp62
Rp63
as.