(dp0
S'features'
p1
(lp2
S'C3'
p3
aS'C10'
p4
aS'C8'
p5
aS'C1'
p6
aS'C7'
p7
aS'C9'
p8
aS'C6'
p9
aS'C4'
p10
aS'C2'
p11
aS'C5'
p12
asS'parameters'
p13
(lp14
(lp15
I4
aa(lp16
I3
aa(lp17
I2
aa(lp18
I2
aa(lp19
I2
aa(lp20
I2
aa(lp21
I2
aa(lp22
I2
aa(lp23
I2
aa(lp24
I2
aasS'accuracy'
p25
(lp26
cnumpy.core.multiarray
scalar
p27
(cnumpy
dtype
p28
(S'f8'
p29
I0
I1
tp30
Rp31
(I3
S'<'
p32
NNNI-1
I-1
I0
tp33
bS'\x8b^\x93\xe0\xb3\xe8\xe5?'
p34
tp35
Rp36
ag27
(g31
S'\xb9\xe5\xb0c\x90[\xe6?'
p37
tp38
Rp39
ag27
(g31
S'X|\xc5W|\xc5\xe7?'
p40
tp41
Rp42
ag27
(g31
S'\x96\x07$\xeb\\y\xe8?'
p43
tp44
Rp45
ag27
(g31
S'\xca\x03\x92u\xae<\xe8?'
p46
tp47
Rp48
ag27
(g31
S'\x8dx3\xe2\xcd\x88\xe7?'
p49
tp50
Rp51
ag27
(g31
S'\x00\x00\x00\x00\x00\x00\xe8?'
p52
tp53
Rp54
ag27
(g31
S'\xcb\x03\x92u\xae<\xe8?'
p55
tp56
Rp57
ag27
(g31
S'X|\xc5W|\xc5\xe7?'
p58
tp59
Rp60
ag27
(g31
S'\xf6p\x0f\xf7p\x0f\xe7?'
p61
tp62
Rp63
as.