(dp0
S'features'
p1
(lp2
S'C10'
p3
aS'C6'
p4
aS'C9'
p5
aS'C5'
p6
aS'C3'
p7
aS'C1'
p8
aS'C8'
p9
aS'C7'
p10
aS'C2'
p11
aS'C4'
p12
asS'parameters'
p13
(lp14
(lp15
I1
aa(lp16
I4
aa(lp17
I4
aa(lp18
I7
aa(lp19
I5
aa(lp20
I9
aa(lp21
I4
aa(lp22
I6
aa(lp23
I7
aa(lp24
I8
aasS'accuracy'
p25
(lp26
cnumpy.core.multiarray
scalar
p27
(cnumpy
dtype
p28
(S'f8'
p29
I0
I1
tp30
Rp31
(I3
S'<'
p32
NNNI-1
I-1
I0
tp33
bS'Z\xf4\x9a\x04\x9fE\xe7?'
p34
tp35
Rp36
ag27
(g31
S'\xa8\x83:\xa8\x83:\xe8?'
p37
tp38
Rp39
ag27
(g31
S'\xa8\x83:\xa8\x83:\xe8?'
p40
tp41
Rp42
ag27
(g31
S'\xa8\x83:\xa8\x83:\xe8?'
p43
tp44
Rp45
ag27
(g31
S'\xba\xffPe\xaa\xfb\xe7?'
p46
tp47
Rp48
ag27
(g31
S'\xba\xffPe\xaa\xfb\xe7?'
p49
tp50
Rp51
ag27
(g31
S'A\x034@\x034\xe8?'
p52
tp53
Rp54
ag27
(g31
S'\xf0\xfb\xbe\xef\xfb\xbe\xe7?'
p55
tp56
Rp57
ag27
(g31
S'\x02x\xd5\xac"\x80\xe7?'
p58
tp59
Rp60
ag27
(g31
S'ai\xeb\x0b\x14\x96\xe6?'
p61
tp62
Rp63
as.