(dp0
S'features'
p1
(lp2
S'C5'
p3
aS'C7'
p4
aS'C6'
p5
aS'C11'
p6
aS'C2'
p7
aS'C9'
p8
aS'C4'
p9
aS'C8'
p10
aS'C1'
p11
aS'C3'
p12
aS'C10'
p13
asS'parameters'
p14
(lp15
(lp16
I5
aI1
aa(lp17
I3
aI1
aa(lp18
I3
aI1
aa(lp19
I7
aI1
aa(lp20
I7
aI1
aa(lp21
I8
aI2
aa(lp22
I8
aI1
aa(lp23
I7
aI2
aa(lp24
I9
aI3
aa(lp25
I5
aI1
aa(lp26
I9
aI3
aasS'accuracy'
p27
(lp28
cnumpy.core.multiarray
scalar
p29
(cnumpy
dtype
p30
(S'f8'
p31
I0
I1
tp32
Rp33
(I3
S'<'
p34
NNNI-1
I-1
I0
tp35
bS'p\x8d)\xe3[c\xea?'
p36
tp37
Rp38
ag29
(g33
S'S\x9cQK{\xcd\xea?'
p39
tp40
Rp41
ag29
(g33
S'\x1a\xd1\xf8)\x13\x01\xeb?'
p42
tp43
Rp44
ag29
(g33
S'.v\x94\r\xf2\x83\xeb?'
p45
tp46
Rp47
ag29
(g33
S'\x15\xa6\xed\x0b\x85i\xeb?'
p48
tp49
Rp50
ag29
(g33
S'ny\xc8M\xf5\xb7\xeb?'
p51
tp52
Rp53
ag29
(g33
S'ny\xc8M\xf5\xb7\xeb?'
p54
tp55
Rp56
ag29
(g33
S'S\xa9!L\x88\x9d\xeb?'
p57
tp58
Rp59
ag29
(g33
S'\x83\x11\x940\xc7j\xeb?'
p60
tp61
Rp62
ag29
(g33
S'\x8etzm\xf0i\xeb?'
p63
tp64
Rp65
ag29
(g33
S'\xa8D!o]\x84\xeb?'
p66
tp67
Rp68
as.