(dp0
S'features'
p1
(lp2
S'C10'
p3
aS'C6'
p4
aS'C11'
p5
aS'C5'
p6
aS'C8'
p7
aS'C7'
p8
aS'C2'
p9
aS'C1'
p10
aS'C9'
p11
aS'C4'
p12
aS'C3'
p13
asS'parameters'
p14
(lp15
(lp16
I0
aI12
aI4
aa(lp17
I2
aI8
aI3
aa(lp18
I4
aI6
aI4
aa(lp19
I3
aI12
aI4
aa(lp20
I4
aI10
aI3
aa(lp21
I4
aI8
aI2
aa(lp22
I4
aI12
aI2
aa(lp23
I4
aI6
aI3
aa(lp24
I5
aI9
aI3
aa(lp25
I4
aI10
aI2
aa(lp26
I5
aI7
aI2
aasS'accuracy'
p27
(lp28
cnumpy.core.multiarray
scalar
p29
(cnumpy
dtype
p30
(S'f8'
p31
I0
I1
tp32
Rp33
(I3
S'<'
p34
NNNI-1
I-1
I0
tp35
bS"\x03\x1f\x8dE'\xae\xe9?"
p36
tp37
Rp38
ag29
(g33
S'~\xfa\xe9\xa7\x9f~\xea?'
p39
tp40
Rp41
ag29
(g33
S'z\xdc\xae\x8a\x1e\xb7\xeb?'
p42
tp43
Rp44
ag29
(g33
S'\xcaL\xa3\x8fe\x06\xec?'
p45
tp46
Rp47
ag29
(g33
S'5\xaeo,\x8d\xeb\xeb?'
p48
tp49
Rp50
ag29
(g33
S'\xeaGU\xaf`\xb8\xeb?'
p51
tp52
Rp53
ag29
(g33
S'\x0e{\xe2\xed\xf6\xd1\xeb?'
p54
tp55
Rp56
ag29
(g33
S'\x8aIoOb\xd2\xeb?'
p57
tp58
Rp59
ag29
(g33
S'HF;\x0f_\x9e\xeb?'
p60
tp61
Rp62
ag29
(g33
S'\xf5\xaa;\xec\x89\xb7\xeb?'
p63
tp64
Rp65
ag29
(g33
S'HF;\x0f_\x9e\xeb?'
p66
tp67
Rp68
as.