(dp0
S'features'
p1
(lp2
S'C4'
p3
aS'C6'
p4
aS'C5'
p5
aS'C2'
p6
aS'C12'
p7
aS'C3'
p8
aS'C1'
p9
aS'C10'
p10
aS'C8'
p11
aS'C11'
p12
aS'C9'
p13
aS'C7'
p14
asS'parameters'
p15
(lp16
(lp17
I1
aI9
aI4
aa(lp18
I4
aI6
aI3
aa(lp19
I3
aI6
aI4
aa(lp20
I5
aI7
aI3
aa(lp21
I4
aI10
aI2
aa(lp22
I5
aI11
aI2
aa(lp23
I5
aI11
aI4
aa(lp24
I5
aI8
aI4
aa(lp25
I5
aI8
aI3
aa(lp26
I5
aI6
aI2
aa(lp27
I5
aI8
aI2
aa(lp28
I5
aI6
aI3
aasS'accuracy'
p29
(lp30
cnumpy.core.multiarray
scalar
p31
(cnumpy
dtype
p32
(S'f8'
p33
I0
I1
tp34
Rp35
(I3
S'<'
p36
NNNI-1
I-1
I0
tp37
bS'\x96\x99$\x90\x11\xd8\xea?'
p38
tp39
Rp40
ag31
(g35
S'3;Pr\x0e\x11\xeb?'
p41
tp42
Rp43
ag31
(g35
S'\xc2\xf8G\x90.-\xeb?'
p44
tp45
Rp46
ag31
(g35
S'\x9b#\xdb\xaaM\x1f\xeb?'
p47
tp48
Rp49
ag31
(g35
S'0\x1d\xd19.\x1f\xeb?'
p50
tp51
Rp52
ag31
(g35
S'\xcepDr\xaf\xf4\xea?'
p53
tp54
Rp55
ag31
(g35
S'\xcdR\xc59\xcf\x02\xeb?'
p56
tp57
Rp58
ag31
(g35
S'\x96\x05\\rm-\xeb?'
p59
tp60
Rp61
ag31
(g35
S'\xcdR\xc59\xcf\x02\xeb?'
p62
tp63
Rp64
ag31
(g35
S'`L\xbb\xc8\xaf\x02\xeb?'
p65
tp66
Rp67
ag31
(g35
S'&u\x9b\xe6\x11\xe6\xea?'
p68
tp69
Rp70
ag31
(g35
S'\x93{\xa5W1\xe6\xea?'
p71
tp72
Rp73
as.