(dp0
S'features'
p1
(lp2
S'C10'
p3
aS'C5'
p4
aS'C11'
p5
aS'C6'
p6
aS'C3'
p7
aS'C8'
p8
aS'C9'
p9
aS'C7'
p10
aS'C4'
p11
aS'C1'
p12
aS'C2'
p13
asS'parameters'
p14
(lp15
(lp16
I2
aa(lp17
I4
aa(lp18
I5
aa(lp19
I4
aa(lp20
I3
aa(lp21
I4
aa(lp22
I4
aa(lp23
I4
aa(lp24
I5
aa(lp25
I4
aa(lp26
I4
aasS'accuracy'
p27
(lp28
cnumpy.core.multiarray
scalar
p29
(cnumpy
dtype
p30
(S'f8'
p31
I0
I1
tp32
Rp33
(I3
S'<'
p34
NNNI-1
I-1
I0
tp35
bS'\xeaN\xe6C\xba\x93\xe9?'
p36
tp37
Rp38
ag29
(g33
S'x\xc2\x0e\x89\x04\x17\xea?'
p39
tp40
Rp41
ag29
(g33
S'3\x94\xcf*sK\xea?'
p42
tp43
Rp44
ag29
(g33
S'\x08C\x07\xcf[j\xeb?'
p45
tp46
Rp47
ag29
(g33
S'hA\xed.ZP\xeb?'
p48
tp49
Rp50
ag29
(g33
S'\xc8?\xd3\x8eX6\xeb?'
p51
tp52
Rp53
ag29
(g33
S'\x88<\x9fNU\x02\xeb?'
p54
tp55
Rp56
ag29
(g33
S's\xa4\xd3k\x83O\xeb?'
p57
tp58
Rp59
ag29
(g33
S'\x9e\x02l\xc8\xa7\x00\xeb?'
p60
tp61
Rp62
ag29
(g33
S's\xa4\xd3k\x83O\xeb?'
p63
tp64
Rp65
ag29
(g33
S'\xba\xd2\x12\xca\x14\x1b\xeb?'
p66
tp67
Rp68
as.