(dp0
S'features'
p1
(lp2
S'onedie'
p3
aS'onesur'
p4
aS'sibling/spouse'
p5
aS'age_unknown'
p6
aS'cabin_unknown'
p7
aS'family'
p8
aS'parent'
p9
aS'age'
p10
aS'Miss.'
p11
aS'Mrs.'
p12
asS'parameters'
p13
(lp14
(lp15
F0.1
aF0.5
aI2
aa(lp16
F0.1
aF0.5
aI2
aa(lp17
F1.0
aF0.5
aI5
aa(lp18
F0.1
aF0.5
aI6
aa(lp19
F0.1
aF0.5
aI4
aa(lp20
F0.1
aF0.5
aI3
aa(lp21
F0.1
aF0.5
aI5
aa(lp22
F0.1
aF0.5
aI3
aa(lp23
F0.1
aF0.5
aI2
aa(lp24
F0.1
aF1.0
aI2
aasS'accuracy'
p25
(lp26
cnumpy.core._multiarray_umath
scalar
p27
(cnumpy
dtype
p28
(S'f8'
p29
I0
I1
tp30
Rp31
(I3
S'<'
p32
NNNI-1
I-1
I0
tp33
bS'\xb2p`\\\x1b\x0b\xe7?'
p34
tp35
Rp36
ag27
(g31
S'Z\xf4\x9a\x04\x9fE\xe7?'
p37
tp38
Rp39
ag27
(g31
S'\x1b\x0b\x07\xc6\xb5\xb1\xe8?'
p40
tp41
Rp42
ag27
(g31
S'\x12|\x16\xbd&\xc1\xe7?'
p43
tp44
Rp45
ag27
(g31
S'\x12|\x16\xbd&\xc1\xe7?'
p46
tp47
Rp48
ag27
(g31
S'\x12|\x16\xbd&\xc1\xe7?'
p49
tp50
Rp51
ag27
(g31
S'\xdd\x7f\xa82\xd5\xfd\xe7?'
p52
tp53
Rp54
ag27
(g31
S'\n\xed%\xb4\x97\xd0\xe6?'
p55
tp56
Rp57
ag27
(g31
S'\xb2p`\\\x1b\x0b\xe7?'
p58
tp59
Rp60
ag27
(g31
S'\xe6l\xce\xe6l\xce\xe6?'
p61
tp62
Rp63
as.