(dp0
S'features'
p1
(lp2
S'onesur'
p3
aS'Master.'
p4
aS'family'
p5
aS'parent'
p6
aS'fare_unknown'
p7
aS'Mr.'
p8
aS'onedie'
p9
aS'cabin_unknown'
p10
aS'age_unknown'
p11
aS'sibling/spouse'
p12
aS'age'
p13
aS'pclass'
p14
asS'parameters'
p15
(lp16
(lp17
F0.1
aF0.5
aI2
aa(lp18
F0.1
aF0.5
aI4
aa(lp19
F0.1
aF0.5
aI2
aa(lp20
F0.1
aF0.5
aI6
aa(lp21
F0.1
aF0.5
aI4
aa(lp22
F0.1
aF0.5
aI5
aa(lp23
F0.1
aF1.0
aI3
aa(lp24
F0.1
aF0.5
aI5
aa(lp25
F0.1
aF0.5
aI2
aa(lp26
F0.1
aF0.5
aI2
aa(lp27
F0.1
aF1.0
aI2
aa(lp28
F0.1
aF0.5
aI3
aasS'accuracy'
p29
(lp30
cnumpy.core._multiarray_umath
scalar
p31
(cnumpy
dtype
p32
(S'f8'
p33
I0
I1
tp34
Rp35
(I3
S'<'
p36
NNNI-1
I-1
I0
tp37
bS'\x1d\xd4A\x1d\xd4A\xe5?'
p38
tp39
Rp40
ag31
(g35
S'\x16_\xf1\x15_\xf1\xe5?'
p41
tp42
Rp43
ag31
(g35
S'ffffff\xe6?'
p44
tp45
Rp46
ag31
(g35
S'\x0f\xea\xa0\x0e\xea\xa0\xe6?'
p47
tp48
Rp49
ag31
(g35
S'\xb7m\xdb\xb6m\xdb\xe6?'
p50
tp51
Rp52
ag31
(g35
S'`\xf1\x15_\xf1\x15\xe7?'
p53
tp54
Rp55
ag31
(g35
S'`\xf1\x15_\xf1\x15\xe7?'
p56
tp57
Rp58
ag31
(g35
S'`\xf1\x15_\xf1\x15\xe7?'
p59
tp60
Rp61
ag31
(g35
S'\xb6m\xdb\xb6m\xdb\xe6?'
p62
tp63
Rp64
ag31
(g35
S'\x16_\xf1\x15_\xf1\xe5?'
p65
tp66
Rp67
ag31
(g35
S'\x16_\xf1\x15_\xf1\xe5?'
p68
tp69
Rp70
ag31
(g35
S'ffffff\xe6?'
p71
tp72
Rp73
as.