(dp0
S'features'
p1
(lp2
S'pclass'
p3
aS'onesur'
p4
aS'Mr.'
p5
aS'cabin_unknown'
p6
aS'fare_unknown'
p7
aS'family'
p8
aS'Master.'
p9
aS'onedie'
p10
aS'age_unknown'
p11
aS'parent'
p12
aS'age'
p13
aS'sibling/spouse'
p14
asS'parameters'
p15
(lp16
(lp17
I6
aI1
aa(lp18
I10
aI1
aa(lp19
I10
aI1
aa(lp20
I10
aI1
aa(lp21
I6
aI1
aa(lp22
I6
aI1
aa(lp23
I7
aI1
aa(lp24
I7
aI1
aa(lp25
I9
aI3
aa(lp26
I4
aI1
aa(lp27
I3
aI1
aa(lp28
I1
aI2
aasS'accuracy'
p29
(lp30
cnumpy.core.multiarray
scalar
p31
(cnumpy
dtype
p32
(S'f8'
p33
I0
I1
tp34
Rp35
(I3
S'<'
p36
NNNI-1
I-1
I0
tp37
bS',\xbe\xe2+\xbe\xe2\xe3?'
p38
tp39
Rp40
ag31
(g35
S'\x1e\xd4A\x1d\xd4A\xe5?'
p41
tp42
Rp43
ag31
(g35
S'ffffff\xe6?'
p44
tp45
Rp46
ag31
(g35
S'ffffff\xe6?'
p47
tp48
Rp49
ag31
(g35
S'ffffff\xe6?'
p50
tp51
Rp52
ag31
(g35
S'ffffff\xe6?'
p53
tp54
Rp55
ag31
(g35
S'\x0e\xea\xa0\x0e\xea\xa0\xe6?'
p56
tp57
Rp58
ag31
(g35
S'ffffff\xe6?'
p59
tp60
Rp61
ag31
(g35
S'\xbe\xe2+\xbe\xe2+\xe6?'
p62
tp63
Rp64
ag31
(g35
S'\x16_\xf1\x15_\xf1\xe5?'
p65
tp66
Rp67
ag31
(g35
S'`\xf1\x15_\xf1\x15\xe7?'
p68
tp69
Rp70
ag31
(g35
S'\x0e\xea\xa0\x0e\xea\xa0\xe6?'
p71
tp72
Rp73
as.