(dp0
S'features'
p1
(lp2
S'onedie'
p3
aS'onesur'
p4
aS'sibling/spouse'
p5
aS'family'
p6
aS'cabin_unknown'
p7
aS'parent'
p8
aS'age_unknown'
p9
aS'age'
p10
aS'Miss.'
p11
aS'Mrs.'
p12
asS'parameters'
p13
(lp14
(lp15
I7
aI1
aa(lp16
I7
aI1
aa(lp17
I3
aI1
aa(lp18
I3
aI1
aa(lp19
I2
aI1
aa(lp20
I2
aI1
aa(lp21
I1
aI1
aa(lp22
I10
aI3
aa(lp23
I7
aI2
aa(lp24
I7
aI2
aasS'accuracy'
p25
(lp26
cnumpy.core.multiarray
scalar
p27
(cnumpy
dtype
p28
(S'f8'
p29
I0
I1
tp30
Rp31
(I3
S'<'
p32
NNNI-1
I-1
I0
tp33
bS'\xb2p`\\\x1b\x0b\xe7?'
p34
tp35
Rp36
ag27
(g31
S'Z\xf4\x9a\x04\x9fE\xe7?'
p37
tp38
Rp39
ag27
(g31
S'>\x8b^\x93\xe0\xb3\xe8?'
p40
tp41
Rp42
ag27
(g31
S'>\x8b^\x93\xe0\xb3\xe8?'
p43
tp44
Rp45
ag27
(g31
S'>\x8b^\x93\xe0\xb3\xe8?'
p46
tp47
Rp48
ag27
(g31
S's\x87\xcc\x1d2w\xe8?'
p49
tp50
Rp51
ag27
(g31
S's\x87\xcc\x1d2w\xe8?'
p52
tp53
Rp54
ag27
(g31
S'\x00\x00\x00\x00\x00\x00\xe8?'
p55
tp56
Rp57
ag27
(g31
S'Gx\x84Gx\x84\xe7?'
p58
tp59
Rp60
ag27
(g31
S'}t\xf2\xd1\xc9G\xe7?'
p61
tp62
Rp63
as.