(dp0
S'features'
p1
(lp2
S'onedie'
p3
aS'onesur'
p4
aS'family'
p5
aS'cabin_unknown'
p6
aS'Miss.'
p7
aS'age'
p8
aS'age_unknown'
p9
aS'Mrs.'
p10
aS'parent'
p11
aS'sibling/spouse'
p12
asS'parameters'
p13
(lp14
(lp15
a(lp16
a(lp17
a(lp18
a(lp19
a(lp20
a(lp21
a(lp22
a(lp23
a(lp24
asS'accuracy'
p25
(lp26
cnumpy.core.multiarray
scalar
p27
(cnumpy
dtype
p28
(S'f8'
p29
I0
I1
tp30
Rp31
(I3
S'<'
p32
NNNI-1
I-1
I0
tp33
bS'\xb2p`\\\x1b\x0b\xe7?'
p34
tp35
Rp36
ag27
(g31
S'Z\xf4\x9a\x04\x9fE\xe7?'
p37
tp38
Rp39
ag27
(g31
S'Z\xf4\x9a\x04\x9fE\xe7?'
p40
tp41
Rp42
ag27
(g31
S'Z\xf4\x9a\x04\x9fE\xe7?'
p43
tp44
Rp45
ag27
(g31
S'Z\xf4\x9a\x04\x9fE\xe7?'
p46
tp47
Rp48
ag27
(g31
S'\x86\x03\xe3\xdaX8\xe8?'
p49
tp50
Rp51
ag27
(g31
S'Q\x07uP\x07u\xe8?'
p52
tp53
Rp54
ag27
(g31
S'Q\x07uP\x07u\xe8?'
p55
tp56
Rp57
ag27
(g31
S'\x12|\x16\xbd&\xc1\xe7?'
p58
tp59
Rp60
ag27
(g31
S'>\xe9\x93>\xe9\x93\xe6?'
p61
tp62
Rp63
as.