(dp0
S'features'
p1
(lp2
S'onesur'
p3
aS'age'
p4
aS'sibling/spouse'
p5
aS'Master.'
p6
aS'parent'
p7
aS'fare_unknown'
p8
aS'Mr.'
p9
aS'cabin_unknown'
p10
aS'age_unknown'
p11
aS'family'
p12
aS'pclass'
p13
aS'onedie'
p14
asS'parameters'
p15
(lp16
(lp17
a(lp18
a(lp19
a(lp20
a(lp21
a(lp22
a(lp23
a(lp24
a(lp25
a(lp26
a(lp27
a(lp28
asS'accuracy'
p29
(lp30
cnumpy.core.multiarray
scalar
p31
(cnumpy
dtype
p32
(S'f8'
p33
I0
I1
tp34
Rp35
(I3
S'<'
p36
NNNI-1
I-1
I0
tp37
bS'\x1d\xd4A\x1d\xd4A\xe5?'
p38
tp39
Rp40
ag31
(g35
S'\xc6W|\xc5W|\xe5?'
p41
tp42
Rp43
ag31
(g35
S'\x0e\xea\xa0\x0e\xea\xa0\xe6?'
p44
tp45
Rp46
ag31
(g35
S'\x0e\xea\xa0\x0e\xea\xa0\xe6?'
p47
tp48
Rp49
ag31
(g35
S'\x0f\xea\xa0\x0e\xea\xa0\xe6?'
p50
tp51
Rp52
ag31
(g35
S'\x0f\xea\xa0\x0e\xea\xa0\xe6?'
p53
tp54
Rp55
ag31
(g35
S'\x0e\xea\xa0\x0e\xea\xa0\xe6?'
p56
tp57
Rp58
ag31
(g35
S'ffffff\xe6?'
p59
tp60
Rp61
ag31
(g35
S'\x16_\xf1\x15_\xf1\xe5?'
p62
tp63
Rp64
ag31
(g35
S'\x0f\xea\xa0\x0e\xea\xa0\xe6?'
p65
tp66
Rp67
ag31
(g35
S'\xbf\xe2+\xbe\xe2+\xe6?'
p68
tp69
Rp70
ag31
(g35
S'\xc6W|\xc5W|\xe5?'
p71
tp72
Rp73
as.