(dp0
S'features'
p1
(lp2
S'onedie'
p3
aS'age_unknown'
p4
aS'age'
p5
aS'onesur'
p6
aS'family'
p7
aS'parent'
p8
aS'cabin_unknown'
p9
aS'sibling/spouse'
p10
aS'Miss.'
p11
aS'Mrs.'
p12
asS'parameters'
p13
(lp14
(lp15
I0
aI6
aI2
aa(lp16
I2
aI14
aI4
aa(lp17
I4
aI6
aI2
aa(lp18
I1
aI7
aI2
aa(lp19
I1
aI10
aI3
aa(lp20
I3
aI6
aI4
aa(lp21
I0
aI10
aI3
aa(lp22
I3
aI8
aI4
aa(lp23
I2
aI14
aI3
aa(lp24
I0
aI12
aI3
aasS'accuracy'
p25
(lp26
cnumpy.core.multiarray
scalar
p27
(cnumpy
dtype
p28
(S'f8'
p29
I0
I1
tp30
Rp31
(I3
S'<'
p32
NNNI-1
I-1
I0
tp33
bS'\xb2p`\\\x1b\x0b\xe7?'
p34
tp35
Rp36
ag27
(g31
S'\xde\x7f\xa82\xd5\xfd\xe7?'
p37
tp38
Rp39
ag27
(g31
S'\x8dx3\xe2\xcd\x88\xe7?'
p40
tp41
Rp42
ag27
(g31
S'\xcb\x03\x92u\xae<\xe8?'
p43
tp44
Rp45
ag27
(g31
S'\x96\x07$\xeb\\y\xe8?'
p46
tp47
Rp48
ag27
(g31
S',\x0fH\xd6\xb9\xf2\xe8?'
p49
tp50
Rp51
ag27
(g31
S'\x96\x07$\xeb\\y\xe8?'
p52
tp53
Rp54
ag27
(g31
S'\xe6\x0e\x99;d\xee\xe8?'
p55
tp56
Rp57
ag27
(g31
S'\x1b\x0b\x07\xc6\xb5\xb1\xe8?'
p58
tp59
Rp60
ag27
(g31
S'\xca\x03\x92u\xae<\xe8?'
p61
tp62
Rp63
as.