(dp0
S'features'
p1
(lp2
S'onesur'
p3
aS'age'
p4
aS'family'
p5
aS'Mr.'
p6
aS'pclass'
p7
aS'cabin_unknown'
p8
aS'parent'
p9
aS'sibling/spouse'
p10
aS'age_unknown'
p11
asS'parameters'
p12
(lp13
(lp14
I1
aa(lp15
I4
aa(lp16
I9
aa(lp17
I1
aa(lp18
I2
aa(lp19
I3
aa(lp20
I3
aa(lp21
I1
aa(lp22
I1
aasS'accuracy'
p23
(lp24
cnumpy.core.multiarray
scalar
p25
(cnumpy
dtype
p26
(S'f8'
p27
I0
I1
tp28
Rp29
(I3
S'<'
p30
NNNI-1
I-1
I0
tp31
bS'\x1d\xd4A\x1d\xd4A\xe5?'
p32
tp33
Rp34
ag25
(g29
S'\xbe\xe2+\xbe\xe2+\xe6?'
p35
tp36
Rp37
ag25
(g29
S'\x0e\xea\xa0\x0e\xea\xa0\xe6?'
p38
tp39
Rp40
ag25
(g29
S'gfffff\xe6?'
p41
tp42
Rp43
ag25
(g29
S'\xb7m\xdb\xb6m\xdb\xe6?'
p44
tp45
Rp46
ag25
(g29
S'\x0e\xea\xa0\x0e\xea\xa0\xe6?'
p47
tp48
Rp49
ag25
(g29
S'gfffff\xe6?'
p50
tp51
Rp52
ag25
(g29
S'\x16_\xf1\x15_\xf1\xe5?'
p53
tp54
Rp55
ag25
(g29
S'n\xdb\xb6m\xdb\xb6\xe5?'
p56
tp57
Rp58
as.