(dp0
S'features'
p1
(lp2
S'onesur'
p3
aS'age'
p4
aS'family'
p5
aS'Mr.'
p6
aS'pclass'
p7
aS'cabin_unknown'
p8
aS'fare_unknown'
p9
aS'onedie'
p10
aS'Master.'
p11
aS'parent'
p12
aS'sibling/spouse'
p13
aS'age_unknown'
p14
asS'parameters'
p15
(lp16
(lp17
I1
aa(lp18
I3
aa(lp19
I9
aa(lp20
I1
aa(lp21
I2
aa(lp22
I3
aa(lp23
I4
aa(lp24
I3
aa(lp25
I4
aa(lp26
I5
aa(lp27
I1
aa(lp28
I3
aasS'accuracy'
p29
(lp30
cnumpy.core.multiarray
scalar
p31
(cnumpy
dtype
p32
(S'f8'
p33
I0
I1
tp34
Rp35
(I3
S'<'
p36
NNNI-1
I-1
I0
tp37
bS'\x1d\xd4A\x1d\xd4A\xe5?'
p38
tp39
Rp40
ag31
(g35
S'\xbe\xe2+\xbe\xe2+\xe6?'
p41
tp42
Rp43
ag31
(g35
S'\x0e\xea\xa0\x0e\xea\xa0\xe6?'
p44
tp45
Rp46
ag31
(g35
S'gfffff\xe6?'
p47
tp48
Rp49
ag31
(g35
S'\xb7m\xdb\xb6m\xdb\xe6?'
p50
tp51
Rp52
ag31
(g35
S'\xb7m\xdb\xb6m\xdb\xe6?'
p53
tp54
Rp55
ag31
(g35
S'_\xf1\x15_\xf1\x15\xe7?'
p56
tp57
Rp58
ag31
(g35
S'_\xf1\x15_\xf1\x15\xe7?'
p59
tp60
Rp61
ag31
(g35
S'\xb7m\xdb\xb6m\xdb\xe6?'
p62
tp63
Rp64
ag31
(g35
S'gfffff\xe6?'
p65
tp66
Rp67
ag31
(g35
S'n\xdb\xb6m\xdb\xb6\xe5?'
p68
tp69
Rp70
ag31
(g35
S'\x1e\xd4A\x1d\xd4A\xe5?'
p71
tp72
Rp73
as.